target datalayout = "e-m:e-p270:32:32-p271:32:32-p272:64:64-i64:64-i128:128-f80:128-n8:16:32:64-S128"
target triple = "x86_64-pc-linux-gnu"

@alsa_snd_pcm_hw_params_sizeof = internal global ptr null, align 8
@alsa_snd_pcm_hw_params_any = internal global ptr null, align 8
@alsa_snd_pcm_hw_params_test_format = internal global ptr null, align 8

; Function Attrs: nounwind uwtable
define internal void @LogAllAvailableFormats(ptr noundef %0) #0 {
  %2 = alloca ptr, align 8
  %3 = alloca i64, align 8
  %4 = alloca ptr, align 8
  %5 = alloca i64, align 8
  store ptr %0, ptr %2, align 8, !tbaa !102
  call void @llvm.lifetime.start.p0(i64 8, ptr %3) #17
  store i64 0, ptr %3, align 8, !tbaa !37
  call void @llvm.lifetime.start.p0(i64 8, ptr %4) #17
  br label %6

6:                                                ; preds = %1
  call void @llvm.lifetime.start.p0(i64 8, ptr %5) #17
  %7 = load ptr, ptr @alsa_snd_pcm_hw_params_sizeof, align 8, !tbaa !32
  %8 = call i64 %7()
  store i64 %8, ptr %5, align 8, !tbaa !37
  %9 = load i64, ptr %5, align 8, !tbaa !37
  %10 = alloca i8, i64 %9, align 16
  store ptr %10, ptr %4, align 8, !tbaa !157
  %11 = load ptr, ptr %4, align 8, !tbaa !157
  %12 = load i64, ptr %5, align 8, !tbaa !37
  call void @llvm.memset.p0.i64(ptr align 1 %11, i8 0, i64 %12, i1 false)
  call void @llvm.lifetime.end.p0(i64 8, ptr %5) #17
  br label %13

13:                                               ; preds = %6
  br label %14

14:                                               ; preds = %13
  %15 = load ptr, ptr @alsa_snd_pcm_hw_params_any, align 8, !tbaa !32
  %16 = load ptr, ptr %2, align 8, !tbaa !102
  %17 = load ptr, ptr %4, align 8, !tbaa !157
  %18 = call i32 %15(ptr noundef %16, ptr noundef %17)
  %19 = load ptr, ptr @alsa_snd_pcm_hw_params_test_format, align 8, !tbaa !32
  %20 = load ptr, ptr %2, align 8, !tbaa !102
  %21 = load ptr, ptr %4, align 8, !tbaa !157
  %22 = call i32 %19(ptr noundef %20, ptr noundef %21, i32 noundef 0)
  %23 = icmp sge i32 %22, 0
  br i1 %23, label %24, label %25

24:                                               ; preds = %14
  br label %25

25:                                               ; preds = %24, %14
  %26 = load ptr, ptr @alsa_snd_pcm_hw_params_test_format, align 8, !tbaa !32
  %27 = load ptr, ptr %2, align 8, !tbaa !102
  %28 = load ptr, ptr %4, align 8, !tbaa !157
  %29 = call i32 %26(ptr noundef %27, ptr noundef %28, i32 noundef 1)
  %30 = icmp sge i32 %29, 0
  br i1 %30, label %31, label %32

31:                                               ; preds = %25
  br label %32

32:                                               ; preds = %31, %25
  %33 = load ptr, ptr @alsa_snd_pcm_hw_params_test_format, align 8, !tbaa !32
  %34 = load ptr, ptr %2, align 8, !tbaa !102
  %35 = load ptr, ptr %4, align 8, !tbaa !157
  %36 = call i32 %33(ptr noundef %34, ptr noundef %35, i32 noundef 2)
  %37 = icmp sge i32 %36, 0
  br i1 %37, label %38, label %39

38:                                               ; preds = %32
  br label %39

39:                                               ; preds = %38, %32
  %40 = load ptr, ptr @alsa_snd_pcm_hw_params_test_format, align 8, !tbaa !32
  %41 = load ptr, ptr %2, align 8, !tbaa !102
  %42 = load ptr, ptr %4, align 8, !tbaa !157
  %43 = call i32 %40(ptr noundef %41, ptr noundef %42, i32 noundef 3)
  %44 = icmp sge i32 %43, 0
  br i1 %44, label %45, label %46

45:                                               ; preds = %39
  br label %46

46:                                               ; preds = %45, %39
  %47 = load ptr, ptr @alsa_snd_pcm_hw_params_test_format, align 8, !tbaa !32
  %48 = load ptr, ptr %2, align 8, !tbaa !102
  %49 = load ptr, ptr %4, align 8, !tbaa !157
  %50 = call i32 %47(ptr noundef %48, ptr noundef %49, i32 noundef 4)
  %51 = icmp sge i32 %50, 0
  br i1 %51, label %52, label %53

52:                                               ; preds = %46
  br label %53

53:                                               ; preds = %52, %46
  %54 = load ptr, ptr @alsa_snd_pcm_hw_params_test_format, align 8, !tbaa !32
  %55 = load ptr, ptr %2, align 8, !tbaa !102
  %56 = load ptr, ptr %4, align 8, !tbaa !157
  %57 = call i32 %54(ptr noundef %55, ptr noundef %56, i32 noundef 5)
  %58 = icmp sge i32 %57, 0
  br i1 %58, label %59, label %60

59:                                               ; preds = %53
  br label %60

60:                                               ; preds = %59, %53
  %61 = load ptr, ptr @alsa_snd_pcm_hw_params_test_format, align 8, !tbaa !32
  %62 = load ptr, ptr %2, align 8, !tbaa !102
  %63 = load ptr, ptr %4, align 8, !tbaa !157
  %64 = call i32 %61(ptr noundef %62, ptr noundef %63, i32 noundef 6)
  %65 = icmp sge i32 %64, 0
  br i1 %65, label %66, label %67

66:                                               ; preds = %60
  br label %67

67:                                               ; preds = %66, %60
  %68 = load ptr, ptr @alsa_snd_pcm_hw_params_test_format, align 8, !tbaa !32
  %69 = load ptr, ptr %2, align 8, !tbaa !102
  %70 = load ptr, ptr %4, align 8, !tbaa !157
  %71 = call i32 %68(ptr noundef %69, ptr noundef %70, i32 noundef 7)
  %72 = icmp sge i32 %71, 0
  br i1 %72, label %73, label %74

73:                                               ; preds = %67
  br label %74

74:                                               ; preds = %73, %67
  %75 = load ptr, ptr @alsa_snd_pcm_hw_params_test_format, align 8, !tbaa !32
  %76 = load ptr, ptr %2, align 8, !tbaa !102
  %77 = load ptr, ptr %4, align 8, !tbaa !157
  %78 = call i32 %75(ptr noundef %76, ptr noundef %77, i32 noundef 8)
  %79 = icmp sge i32 %78, 0
  br i1 %79, label %80, label %81

80:                                               ; preds = %74
  br label %81

81:                                               ; preds = %80, %74
  %82 = load ptr, ptr @alsa_snd_pcm_hw_params_test_format, align 8, !tbaa !32
  %83 = load ptr, ptr %2, align 8, !tbaa !102
  %84 = load ptr, ptr %4, align 8, !tbaa !157
  %85 = call i32 %82(ptr noundef %83, ptr noundef %84, i32 noundef 9)
  %86 = icmp sge i32 %85, 0
  br i1 %86, label %87, label %88

87:                                               ; preds = %81
  br label %88

88:                                               ; preds = %87, %81
  %89 = load ptr, ptr @alsa_snd_pcm_hw_params_test_format, align 8, !tbaa !32
  %90 = load ptr, ptr %2, align 8, !tbaa !102
  %91 = load ptr, ptr %4, align 8, !tbaa !157
  %92 = call i32 %89(ptr noundef %90, ptr noundef %91, i32 noundef 14)
  %93 = icmp sge i32 %92, 0
  br i1 %93, label %94, label %95

94:                                               ; preds = %88
  br label %95

95:                                               ; preds = %94, %88
  %96 = load ptr, ptr @alsa_snd_pcm_hw_params_test_format, align 8, !tbaa !32
  %97 = load ptr, ptr %2, align 8, !tbaa !102
  %98 = load ptr, ptr %4, align 8, !tbaa !157
  %99 = call i32 %96(ptr noundef %97, ptr noundef %98, i32 noundef 15)
  %100 = icmp sge i32 %99, 0
  br i1 %100, label %101, label %102

101:                                              ; preds = %95
  br label %102

102:                                              ; preds = %101, %95
  %103 = load ptr, ptr @alsa_snd_pcm_hw_params_test_format, align 8, !tbaa !32
  %104 = load ptr, ptr %2, align 8, !tbaa !102
  %105 = load ptr, ptr %4, align 8, !tbaa !157
  %106 = call i32 %103(ptr noundef %104, ptr noundef %105, i32 noundef 16)
  %107 = icmp sge i32 %106, 0
  br i1 %107, label %108, label %109

108:                                              ; preds = %102
  br label %109

109:                                              ; preds = %108, %102
  %110 = load ptr, ptr @alsa_snd_pcm_hw_params_test_format, align 8, !tbaa !32
  %111 = load ptr, ptr %2, align 8, !tbaa !102
  %112 = load ptr, ptr %4, align 8, !tbaa !157
  %113 = call i32 %110(ptr noundef %111, ptr noundef %112, i32 noundef 17)
  %114 = icmp sge i32 %113, 0
  br i1 %114, label %115, label %116

115:                                              ; preds = %109
  br label %116

116:                                              ; preds = %115, %109
  %117 = load ptr, ptr @alsa_snd_pcm_hw_params_test_format, align 8, !tbaa !32
  %118 = load ptr, ptr %2, align 8, !tbaa !102
  %119 = load ptr, ptr %4, align 8, !tbaa !157
  %120 = call i32 %117(ptr noundef %118, ptr noundef %119, i32 noundef 18)
  %121 = icmp sge i32 %120, 0
  br i1 %121, label %122, label %123

122:                                              ; preds = %116
  br label %123

123:                                              ; preds = %122, %116
  %124 = load ptr, ptr @alsa_snd_pcm_hw_params_test_format, align 8, !tbaa !32
  %125 = load ptr, ptr %2, align 8, !tbaa !102
  %126 = load ptr, ptr %4, align 8, !tbaa !157
  %127 = call i32 %124(ptr noundef %125, ptr noundef %126, i32 noundef 19)
  %128 = icmp sge i32 %127, 0
  br i1 %128, label %129, label %130

129:                                              ; preds = %123
  br label %130

130:                                              ; preds = %129, %123
  %131 = load ptr, ptr @alsa_snd_pcm_hw_params_test_format, align 8, !tbaa !32
  %132 = load ptr, ptr %2, align 8, !tbaa !102
  %133 = load ptr, ptr %4, align 8, !tbaa !157
  %134 = call i32 %131(ptr noundef %132, ptr noundef %133, i32 noundef 20)
  %135 = icmp sge i32 %134, 0
  br i1 %135, label %136, label %137

136:                                              ; preds = %130
  br label %137

137:                                              ; preds = %136, %130
  %138 = load ptr, ptr @alsa_snd_pcm_hw_params_test_format, align 8, !tbaa !32
  %139 = load ptr, ptr %2, align 8, !tbaa !102
  %140 = load ptr, ptr %4, align 8, !tbaa !157
  %141 = call i32 %138(ptr noundef %139, ptr noundef %140, i32 noundef 21)
  %142 = icmp sge i32 %141, 0
  br i1 %142, label %143, label %144

143:                                              ; preds = %137
  br label %144

144:                                              ; preds = %143, %137
  %145 = load ptr, ptr @alsa_snd_pcm_hw_params_test_format, align 8, !tbaa !32
  %146 = load ptr, ptr %2, align 8, !tbaa !102
  %147 = load ptr, ptr %4, align 8, !tbaa !157
  %148 = call i32 %145(ptr noundef %146, ptr noundef %147, i32 noundef 22)
  %149 = icmp sge i32 %148, 0
  br i1 %149, label %150, label %151

150:                                              ; preds = %144
  br label %151

151:                                              ; preds = %150, %144
  %152 = load ptr, ptr @alsa_snd_pcm_hw_params_test_format, align 8, !tbaa !32
  %153 = load ptr, ptr %2, align 8, !tbaa !102
  %154 = load ptr, ptr %4, align 8, !tbaa !157
  %155 = call i32 %152(ptr noundef %153, ptr noundef %154, i32 noundef 23)
  %156 = icmp sge i32 %155, 0
  br i1 %156, label %157, label %158

157:                                              ; preds = %151
  br label %158

158:                                              ; preds = %157, %151
  %159 = load ptr, ptr @alsa_snd_pcm_hw_params_test_format, align 8, !tbaa !32
  %160 = load ptr, ptr %2, align 8, !tbaa !102
  %161 = load ptr, ptr %4, align 8, !tbaa !157
  %162 = call i32 %159(ptr noundef %160, ptr noundef %161, i32 noundef 24)
  %163 = icmp sge i32 %162, 0
  br i1 %163, label %164, label %165

164:                                              ; preds = %158
  br label %165

165:                                              ; preds = %164, %158
  %166 = load ptr, ptr @alsa_snd_pcm_hw_params_test_format, align 8, !tbaa !32
  %167 = load ptr, ptr %2, align 8, !tbaa !102
  %168 = load ptr, ptr %4, align 8, !tbaa !157
  %169 = call i32 %166(ptr noundef %167, ptr noundef %168, i32 noundef 31)
  %170 = icmp sge i32 %169, 0
  br i1 %170, label %171, label %172

171:                                              ; preds = %165
  br label %172

172:                                              ; preds = %171, %165
  %173 = load ptr, ptr @alsa_snd_pcm_hw_params_test_format, align 8, !tbaa !32
  %174 = load ptr, ptr %2, align 8, !tbaa !102
  %175 = load ptr, ptr %4, align 8, !tbaa !157
  %176 = call i32 %173(ptr noundef %174, ptr noundef %175, i32 noundef 32)
  %177 = icmp sge i32 %176, 0
  br i1 %177, label %178, label %179

178:                                              ; preds = %172
  br label %179

179:                                              ; preds = %178, %172
  %180 = load ptr, ptr @alsa_snd_pcm_hw_params_test_format, align 8, !tbaa !32
  %181 = load ptr, ptr %2, align 8, !tbaa !102
  %182 = load ptr, ptr %4, align 8, !tbaa !157
  %183 = call i32 %180(ptr noundef %181, ptr noundef %182, i32 noundef 33)
  %184 = icmp sge i32 %183, 0
  br i1 %184, label %185, label %186

185:                                              ; preds = %179
  br label %186

186:                                              ; preds = %185, %179
  %187 = load ptr, ptr @alsa_snd_pcm_hw_params_test_format, align 8, !tbaa !32
  %188 = load ptr, ptr %2, align 8, !tbaa !102
  %189 = load ptr, ptr %4, align 8, !tbaa !157
  %190 = call i32 %187(ptr noundef %188, ptr noundef %189, i32 noundef 34)
  %191 = icmp sge i32 %190, 0
  br i1 %191, label %192, label %193

192:                                              ; preds = %186
  br label %193

193:                                              ; preds = %192, %186
  %194 = load ptr, ptr @alsa_snd_pcm_hw_params_test_format, align 8, !tbaa !32
  %195 = load ptr, ptr %2, align 8, !tbaa !102
  %196 = load ptr, ptr %4, align 8, !tbaa !157
  %197 = call i32 %194(ptr noundef %195, ptr noundef %196, i32 noundef 35)
  %198 = icmp sge i32 %197, 0
  br i1 %198, label %199, label %200

199:                                              ; preds = %193
  br label %200

200:                                              ; preds = %199, %193
  %201 = load ptr, ptr @alsa_snd_pcm_hw_params_test_format, align 8, !tbaa !32
  %202 = load ptr, ptr %2, align 8, !tbaa !102
  %203 = load ptr, ptr %4, align 8, !tbaa !157
  %204 = call i32 %201(ptr noundef %202, ptr noundef %203, i32 noundef 36)
  %205 = icmp sge i32 %204, 0
  br i1 %205, label %206, label %207

206:                                              ; preds = %200
  br label %207

207:                                              ; preds = %206, %200
  %208 = load ptr, ptr @alsa_snd_pcm_hw_params_test_format, align 8, !tbaa !32
  %209 = load ptr, ptr %2, align 8, !tbaa !102
  %210 = load ptr, ptr %4, align 8, !tbaa !157
  %211 = call i32 %208(ptr noundef %209, ptr noundef %210, i32 noundef 37)
  %212 = icmp sge i32 %211, 0
  br i1 %212, label %213, label %214

213:                                              ; preds = %207
  br label %214

214:                                              ; preds = %213, %207
  %215 = load ptr, ptr @alsa_snd_pcm_hw_params_test_format, align 8, !tbaa !32
  %216 = load ptr, ptr %2, align 8, !tbaa !102
  %217 = load ptr, ptr %4, align 8, !tbaa !157
  %218 = call i32 %215(ptr noundef %216, ptr noundef %217, i32 noundef 38)
  %219 = icmp sge i32 %218, 0
  br i1 %219, label %220, label %221

220:                                              ; preds = %214
  br label %221

221:                                              ; preds = %220, %214
  %222 = load ptr, ptr @alsa_snd_pcm_hw_params_test_format, align 8, !tbaa !32
  %223 = load ptr, ptr %2, align 8, !tbaa !102
  %224 = load ptr, ptr %4, align 8, !tbaa !157
  %225 = call i32 %222(ptr noundef %223, ptr noundef %224, i32 noundef 39)
  %226 = icmp sge i32 %225, 0
  br i1 %226, label %227, label %228

227:                                              ; preds = %221
  br label %228

228:                                              ; preds = %227, %221
  %229 = load ptr, ptr @alsa_snd_pcm_hw_params_test_format, align 8, !tbaa !32
  %230 = load ptr, ptr %2, align 8, !tbaa !102
  %231 = load ptr, ptr %4, align 8, !tbaa !157
  %232 = call i32 %229(ptr noundef %230, ptr noundef %231, i32 noundef 40)
  %233 = icmp sge i32 %232, 0
  br i1 %233, label %234, label %235

234:                                              ; preds = %228
  br label %235

235:                                              ; preds = %234, %228
  %236 = load ptr, ptr @alsa_snd_pcm_hw_params_test_format, align 8, !tbaa !32
  %237 = load ptr, ptr %2, align 8, !tbaa !102
  %238 = load ptr, ptr %4, align 8, !tbaa !157
  %239 = call i32 %236(ptr noundef %237, ptr noundef %238, i32 noundef 41)
  %240 = icmp sge i32 %239, 0
  br i1 %240, label %241, label %242

241:                                              ; preds = %235
  br label %242

242:                                              ; preds = %241, %235
  %243 = load ptr, ptr @alsa_snd_pcm_hw_params_test_format, align 8, !tbaa !32
  %244 = load ptr, ptr %2, align 8, !tbaa !102
  %245 = load ptr, ptr %4, align 8, !tbaa !157
  %246 = call i32 %243(ptr noundef %244, ptr noundef %245, i32 noundef 42)
  %247 = icmp sge i32 %246, 0
  br i1 %247, label %248, label %249

248:                                              ; preds = %242
  br label %249

249:                                              ; preds = %248, %242
  %250 = load ptr, ptr @alsa_snd_pcm_hw_params_test_format, align 8, !tbaa !32
  %251 = load ptr, ptr %2, align 8, !tbaa !102
  %252 = load ptr, ptr %4, align 8, !tbaa !157
  %253 = call i32 %250(ptr noundef %251, ptr noundef %252, i32 noundef 43)
  %254 = icmp sge i32 %253, 0
  br i1 %254, label %255, label %256

255:                                              ; preds = %249
  br label %256

256:                                              ; preds = %255, %249
  %257 = load ptr, ptr @alsa_snd_pcm_hw_params_test_format, align 8, !tbaa !32
  %258 = load ptr, ptr %2, align 8, !tbaa !102
  %259 = load ptr, ptr %4, align 8, !tbaa !157
  %260 = call i32 %257(ptr noundef %258, ptr noundef %259, i32 noundef 2)
  %261 = icmp sge i32 %260, 0
  br i1 %261, label %262, label %263

262:                                              ; preds = %256
  br label %263

263:                                              ; preds = %262, %256
  %264 = load ptr, ptr @alsa_snd_pcm_hw_params_test_format, align 8, !tbaa !32
  %265 = load ptr, ptr %2, align 8, !tbaa !102
  %266 = load ptr, ptr %4, align 8, !tbaa !157
  %267 = call i32 %264(ptr noundef %265, ptr noundef %266, i32 noundef 4)
  %268 = icmp sge i32 %267, 0
  br i1 %268, label %269, label %270

269:                                              ; preds = %263
  br label %270

270:                                              ; preds = %269, %263
  %271 = load ptr, ptr @alsa_snd_pcm_hw_params_test_format, align 8, !tbaa !32
  %272 = load ptr, ptr %2, align 8, !tbaa !102
  %273 = load ptr, ptr %4, align 8, !tbaa !157
  %274 = call i32 %271(ptr noundef %272, ptr noundef %273, i32 noundef 6)
  %275 = icmp sge i32 %274, 0
  br i1 %275, label %276, label %277

276:                                              ; preds = %270
  br label %277

277:                                              ; preds = %276, %270
  %278 = load ptr, ptr @alsa_snd_pcm_hw_params_test_format, align 8, !tbaa !32
  %279 = load ptr, ptr %2, align 8, !tbaa !102
  %280 = load ptr, ptr %4, align 8, !tbaa !157
  %281 = call i32 %278(ptr noundef %279, ptr noundef %280, i32 noundef 8)
  %282 = icmp sge i32 %281, 0
  br i1 %282, label %283, label %284

283:                                              ; preds = %277
  br label %284

284:                                              ; preds = %283, %277
  %285 = load ptr, ptr @alsa_snd_pcm_hw_params_test_format, align 8, !tbaa !32
  %286 = load ptr, ptr %2, align 8, !tbaa !102
  %287 = load ptr, ptr %4, align 8, !tbaa !157
  %288 = call i32 %285(ptr noundef %286, ptr noundef %287, i32 noundef 10)
  %289 = icmp sge i32 %288, 0
  br i1 %289, label %290, label %291

290:                                              ; preds = %284
  br label %291

291:                                              ; preds = %290, %284
  %292 = load ptr, ptr @alsa_snd_pcm_hw_params_test_format, align 8, !tbaa !32
  %293 = load ptr, ptr %2, align 8, !tbaa !102
  %294 = load ptr, ptr %4, align 8, !tbaa !157
  %295 = call i32 %292(ptr noundef %293, ptr noundef %294, i32 noundef 12)
  %296 = icmp sge i32 %295, 0
  br i1 %296, label %297, label %298

297:                                              ; preds = %291
  br label %298

298:                                              ; preds = %297, %291
  %299 = load ptr, ptr @alsa_snd_pcm_hw_params_test_format, align 8, !tbaa !32
  %300 = load ptr, ptr %2, align 8, !tbaa !102
  %301 = load ptr, ptr %4, align 8, !tbaa !157
  %302 = call i32 %299(ptr noundef %300, ptr noundef %301, i32 noundef 14)
  %303 = icmp sge i32 %302, 0
  br i1 %303, label %304, label %305

304:                                              ; preds = %298
  br label %305

305:                                              ; preds = %304, %298
  %306 = load ptr, ptr @alsa_snd_pcm_hw_params_test_format, align 8, !tbaa !32
  %307 = load ptr, ptr %2, align 8, !tbaa !102
  %308 = load ptr, ptr %4, align 8, !tbaa !157
  %309 = call i32 %306(ptr noundef %307, ptr noundef %308, i32 noundef 16)
  %310 = icmp sge i32 %309, 0
  br i1 %310, label %311, label %312

311:                                              ; preds = %305
  br label %312

312:                                              ; preds = %311, %305
  %313 = load ptr, ptr @alsa_snd_pcm_hw_params_test_format, align 8, !tbaa !32
  %314 = load ptr, ptr %2, align 8, !tbaa !102
  %315 = load ptr, ptr %4, align 8, !tbaa !157
  %316 = call i32 %313(ptr noundef %314, ptr noundef %315, i32 noundef 18)
  %317 = icmp sge i32 %316, 0
  br i1 %317, label %318, label %319

318:                                              ; preds = %312
  br label %319

319:                                              ; preds = %318, %312
  call void @llvm.lifetime.end.p0(i64 8, ptr %4) #17
  call void @llvm.lifetime.end.p0(i64 8, ptr %3) #17
  ret void
}