; Function Attrs: nounwind uwtable
define internal fastcc void @LogAllAvailableFormats(ptr noundef %0) unnamed_addr #2 {
  %2 = tail call i64 @snd_pcm_hw_params_sizeof() #25, !callees !170
  %3 = alloca i8, i64 %2, align 16
  call void @llvm.memset.p0.i64(ptr nonnull align 16 %3, i8 0, i64 %2, i1 false)
  %4 = call i32 @snd_pcm_hw_params_any(ptr noundef %0, ptr noundef nonnull %3) #25, !callees !171
  %5 = call i32 @snd_pcm_hw_params_test_format(ptr noundef %0, ptr noundef nonnull %3, i32 noundef 0) #25, !callees !186
  %6 = call i32 @snd_pcm_hw_params_test_format(ptr noundef %0, ptr noundef nonnull %3, i32 noundef 1) #25, !callees !186
  %7 = call i32 @snd_pcm_hw_params_test_format(ptr noundef %0, ptr noundef nonnull %3, i32 noundef 2) #25, !callees !186
  %8 = call i32 @snd_pcm_hw_params_test_format(ptr noundef %0, ptr noundef nonnull %3, i32 noundef 3) #25, !callees !186
  %9 = call i32 @snd_pcm_hw_params_test_format(ptr noundef %0, ptr noundef nonnull %3, i32 noundef 4) #25, !callees !186
  %10 = call i32 @snd_pcm_hw_params_test_format(ptr noundef %0, ptr noundef nonnull %3, i32 noundef 5) #25, !callees !186
  %11 = call i32 @snd_pcm_hw_params_test_format(ptr noundef %0, ptr noundef nonnull %3, i32 noundef 6) #25, !callees !186
  %12 = call i32 @snd_pcm_hw_params_test_format(ptr noundef %0, ptr noundef nonnull %3, i32 noundef 7) #25, !callees !186
  %13 = call i32 @snd_pcm_hw_params_test_format(ptr noundef %0, ptr noundef nonnull %3, i32 noundef 8) #25, !callees !186
  %14 = call i32 @snd_pcm_hw_params_test_format(ptr noundef %0, ptr noundef nonnull %3, i32 noundef 9) #25, !callees !186
  %15 = call i32 @snd_pcm_hw_params_test_format(ptr noundef %0, ptr noundef nonnull %3, i32 noundef 14) #25, !callees !186
  %16 = call i32 @snd_pcm_hw_params_test_format(ptr noundef %0, ptr noundef nonnull %3, i32 noundef 15) #25, !callees !186
  %17 = call i32 @snd_pcm_hw_params_test_format(ptr noundef %0, ptr noundef nonnull %3, i32 noundef 16) #25, !callees !186
  %18 = call i32 @snd_pcm_hw_params_test_format(ptr noundef %0, ptr noundef nonnull %3, i32 noundef 17) #25, !callees !186
  %19 = call i32 @snd_pcm_hw_params_test_format(ptr noundef %0, ptr noundef nonnull %3, i32 noundef 18) #25, !callees !186
  %20 = call i32 @snd_pcm_hw_params_test_format(ptr noundef %0, ptr noundef nonnull %3, i32 noundef 19) #25, !callees !186
  %21 = call i32 @snd_pcm_hw_params_test_format(ptr noundef %0, ptr noundef nonnull %3, i32 noundef 20) #25, !callees !186
  %22 = call i32 @snd_pcm_hw_params_test_format(ptr noundef %0, ptr noundef nonnull %3, i32 noundef 21) #25, !callees !186
  %23 = call i32 @snd_pcm_hw_params_test_format(ptr noundef %0, ptr noundef nonnull %3, i32 noundef 22) #25, !callees !186
  %24 = call i32 @snd_pcm_hw_params_test_format(ptr noundef %0, ptr noundef nonnull %3, i32 noundef 23) #25, !callees !186
  %25 = call i32 @snd_pcm_hw_params_test_format(ptr noundef %0, ptr noundef nonnull %3, i32 noundef 24) #25, !callees !186
  %26 = call i32 @snd_pcm_hw_params_test_format(ptr noundef %0, ptr noundef nonnull %3, i32 noundef 31) #25, !callees !186
  %27 = call i32 @snd_pcm_hw_params_test_format(ptr noundef %0, ptr noundef nonnull %3, i32 noundef 32) #25, !callees !186
  %28 = call i32 @snd_pcm_hw_params_test_format(ptr noundef %0, ptr noundef nonnull %3, i32 noundef 33) #25, !callees !186
  %29 = call i32 @snd_pcm_hw_params_test_format(ptr noundef %0, ptr noundef nonnull %3, i32 noundef 34) #25, !callees !186
  %30 = call i32 @snd_pcm_hw_params_test_format(ptr noundef %0, ptr noundef nonnull %3, i32 noundef 35) #25, !callees !186
  %31 = call i32 @snd_pcm_hw_params_test_format(ptr noundef %0, ptr noundef nonnull %3, i32 noundef 36) #25, !callees !186
  %32 = call i32 @snd_pcm_hw_params_test_format(ptr noundef %0, ptr noundef nonnull %3, i32 noundef 37) #25, !callees !186
  %33 = call i32 @snd_pcm_hw_params_test_format(ptr noundef %0, ptr noundef nonnull %3, i32 noundef 38) #25, !callees !186
  %34 = call i32 @snd_pcm_hw_params_test_format(ptr noundef %0, ptr noundef nonnull %3, i32 noundef 39) #25, !callees !186
  %35 = call i32 @snd_pcm_hw_params_test_format(ptr noundef %0, ptr noundef nonnull %3, i32 noundef 40) #25, !callees !186
  %36 = call i32 @snd_pcm_hw_params_test_format(ptr noundef %0, ptr noundef nonnull %3, i32 noundef 41) #25, !callees !186
  %37 = call i32 @snd_pcm_hw_params_test_format(ptr noundef %0, ptr noundef nonnull %3, i32 noundef 42) #25, !callees !186
  %38 = call i32 @snd_pcm_hw_params_test_format(ptr noundef %0, ptr noundef nonnull %3, i32 noundef 43) #25, !callees !186
  %39 = call i32 @snd_pcm_hw_params_test_format(ptr noundef %0, ptr noundef nonnull %3, i32 noundef 2) #25, !callees !186
  %40 = call i32 @snd_pcm_hw_params_test_format(ptr noundef %0, ptr noundef nonnull %3, i32 noundef 4) #25, !callees !186
  %41 = call i32 @snd_pcm_hw_params_test_format(ptr noundef %0, ptr noundef nonnull %3, i32 noundef 6) #25, !callees !186
  %42 = call i32 @snd_pcm_hw_params_test_format(ptr noundef %0, ptr noundef nonnull %3, i32 noundef 8) #25, !callees !186
  %43 = call i32 @snd_pcm_hw_params_test_format(ptr noundef %0, ptr noundef nonnull %3, i32 noundef 10) #25, !callees !186
  %44 = call i32 @snd_pcm_hw_params_test_format(ptr noundef %0, ptr noundef nonnull %3, i32 noundef 12) #25, !callees !186
  %45 = call i32 @snd_pcm_hw_params_test_format(ptr noundef %0, ptr noundef nonnull %3, i32 noundef 14) #25, !callees !186
  %46 = call i32 @snd_pcm_hw_params_test_format(ptr noundef %0, ptr noundef nonnull %3, i32 noundef 16) #25, !callees !186
  %47 = call i32 @snd_pcm_hw_params_test_format(ptr noundef %0, ptr noundef nonnull %3, i32 noundef 18) #25, !callees !186
  ret void
}